(dp0
S'LD1J2C_5950.000000'
p1
F0.6838409234596454
sS'LD1J2_5950'
p2
F1.9495124956498757
sS'LD0J1_5950'
p3
F0.5197159239198198
sS'LC0J1_5950'
p4
F2.491240977471789
sS'LD0J1C_5950.000000'
p5
F2.205661102214549
sS'LB1J2C_5550.000000'
p6
F2.3139115681577853
sS'ID0A0_5950'
p7
F1.1100335206586067
sS'LA0J1_5550'
p8
F2.477828257488836
sS'LD1J2_5150'
p9
F0.7637600688157823
sS'LD0J1_5150'
p10
F1.7959003230674597
sS'LC0J1_5150'
p11
F0.5652428136264941
sS'IA0B0_5550'
p12
F-0.7829915423433818
sS'LC0J1_5550'
p13
F0.6207484472852148
sS'IA0B0_5150'
p14
F-0.24128185941288027
sS'IB0C0_5150'
p15
F2.3549740943991244
sS'IB0C0C_5150.000000'
p16
F-0.40686334798289947
sS'IA1B1_5150'
p17
F-0.15058888447707008
sS'IB1C1_5550'
p18
F2.215320808309796
sS'IA1B1_5950'
p19
F0.2975460935084735
sS'IC1B1_5950'
p20
F-0.0030715427712635357
sS'ID0A0C_5550.000000'
p21
F-0.1717320687198719
sS'LD0J1C_5550.000000'
p22
F0.5065100144983472
sS'IA1B1_5550'
p23
F-0.04036687537553818
sS'IB0C0_5550'
p24
F2.360389567717011
sS'LD0J1C_5150.000000'
p25
F0.7676752837080056
sS'IB1C1C_5950.000000'
p26
F-0.6768403238411806
sS'LA0J1_5150'
p27
F0.15639413627516116
sS'LA1J2C_5950.000000'
p28
F0.30773738937604983
sS'IC0B0_5550'
p29
F-0.6330446574757902
sS'IB0C0C_5950.000000'
p30
F0.044604385024105575
sS'LB1J2_5150'
p31
F1.4398333215408246
sS'ID1A1_5950'
p32
F0.43784294580716976
sS'IA0B0C_5550.000000'
p33
F-0.35969118417493073
sS'ID0A0_5550'
p34
F1.863068951768457
sS'IA0D0_5150'
p35
F-0.13921022132465122
sS'LA0J1C_5150.000000'
p36
F0.3266762736637762
sS'ID1A1_5150'
p37
F1.5035138427198855
sS'IA0B0C_5950.000000'
p38
F0.15528515535599285
sS'ID0A0_5150'
p39
F1.5712387803629555
sS'D1A1_5950'
p40
F0.2635508712722722
sS'ID1A1_5550'
p41
F1.018382236111879
sS'LC1J2C_5550.000000'
p42
F1.706988168413944
sS'IB0C0C_5550.000000'
p43
F0.1707941127968482
sS'B1C1_5950'
p44
F0.362166486920928
sS'ID0A0C_5950.000000'
p45
F-0.2790817538747947
sS'LA1J2C_5150.000000'
p46
F2.4092085047797047
sS'IA1D1_5950'
p47
F-0.945522403775908
sS'LC1J2_5550'
p48
F2.322109580128081
sS'IC0B0_5150'
p49
F-0.8775221563995628
sS'LC0J1C_5550.000000'
p50
F1.1955806541036895
sS'LA1J2_5150'
p51
F2.237881058183474
sS'ID1A1C_5150.000000'
p52
F-0.893197168626356
sS'IA0B0C_5150.000000'
p53
F-0.6209076418817743
sS'LB1J2_5950'
p54
F0.8239871075899529
sS'IC0B0_5950'
p55
F0.22767578861740478
sS'LC0J1C_5150.000000'
p56
F0.6762772029699174
sS'LB1J2_5550'
p57
F0.9452248235018588
sS'ID0A0C_5150.000000'
p58
F-0.9064669855145759
sS'D1A1_5550'
p59
F2.1332182818506493
sS'LD1J2_5550'
p60
F0.47546629955829456
sS'IA1B1C_5950.000000'
p61
F0.4688192838861658
sS'IB0C0_5950'
p62
F1.7593232839100985
sS'LA1J2_5950'
p63
F0.46179920760525217
sS'LB0J1_5950'
p64
F0.39844020634000343
sS'IC1B1_5150'
p65
F0.4745745995344002
sS'LC0J1C_5950.000000'
p66
F0.8394227289502433
sS'IA1B1C_5550.000000'
p67
F0.09810034174315985
sS'LD0J1_5550'
p68
F0.2910108684052896
sS'LA1J2_5550'
p69
F0.7549669866537486
sS'ID1A1C_5550.000000'
p70
F0.3253409779423735
sS'LD1J2C_5550.000000'
p71
F0.29504260586585784
sS'LA1J2C_5550.000000'
p72
F2.414988087651289
sS'LB1J2C_5150.000000'
p73
F0.32655379546601776
sS'LA0J1C_5950.000000'
p74
F0.4136308633317778
sS'D0A0_5550'
p75
F1.254896594581939
sS'IB1C1C_5550.000000'
p76
F-0.7432151087745074
sS'D0A0_5950'
p77
F1.2754350633740419
sS'IB1C1_5150'
p78
F0.5056523361238665
sS'LA0J1_5950'
p79
F0.814179594954549
sS'LB0J1C_5150.000000'
p80
F2.4418447687081297
sS'IB1C1C_5150.000000'
p81
F0.05634183483950661
sS'LC1J2_5150'
p82
F1.5208474762296351
sS'IA0D0_5950'
p83
F-1.035301744602958
sS'IB1C1_5950'
p84
F0.5457691110224172
sS'LB0J1_5150'
p85
F0.6721601806141005
sS'LC1J2C_5950.000000'
p86
F0.6711627256791362
sS'D0A0_5150'
p87
F0.6934576923679591
sS'LB1J2C_5950.000000'
p88
F2.4066367198189966
sS'D1A1_5150'
p89
F2.4784820298924797
sS'IA1D1_5550'
p90
F-0.6850067900932179
sS'LC1J2C_5150.000000'
p91
F1.073351758815135
sS'LB0J1C_5950.000000'
p92
F0.844504251194292
sS'IA0B0_5950'
p93
F-0.854927771645963
sS'LB0J1C_5550.000000'
p94
F1.7877124870233871
sS'LD1J2C_5150.000000'
p95
F2.22020663463807
sS'LA0J1C_5550.000000'
p96
F1.9948199552993549
sS'ID1A1C_5950.000000'
p97
F-0.9924629451592281
sS'B1C1_5150'
p98
F0.700490554400671
sS'IA1B1C_5150.000000'
p99
F-0.3870013179081865
sS'IA0D0_5550'
p100
F0.3689626685029901
sS'IA1D1_5150'
p101
F-0.36166126013072675
sS'B1C1_5550'
p102
F0.6877145933050669
sS'LC1J2_5950'
p103
F0.2143647526529394
sS'LB0J1_5550'
p104
F2.420108738333864
sS'IC1B1_5550'
p105
F0.2825673983402708
s.